; Function Attrs: mustprogress uwtable
define hidden void @_ZN4lean9to_offsetENS_5levelE(ptr dead_on_unwind noalias writable writeonly sret(%"struct.std::pair") align 8 captures(none) %0, ptr noundef captures(none) %1) local_unnamed_addr #0 {
  %3 = load ptr, ptr %1, align 8, !tbaa !3
  %4 = ptrtoint ptr %3 to i64
  %5 = and i64 %4, 1
  %.not.i.i.i6 = icmp eq i64 %5, 0
  br i1 %.not.i.i.i6, label %_ZN4lean7is_succERKNS_5levelE.exit, label %._crit_edge

_ZN4lean7is_succERKNS_5levelE.exit:               ; preds = %2, %_ZN4lean5levelaSERKS0_.exit
  %6 = phi ptr [ %21, %_ZN4lean5levelaSERKS0_.exit ], [ %3, %2 ]
  %storemerge7 = phi i32 [ %31, %_ZN4lean5levelaSERKS0_.exit ], [ 0, %2 ]
  %7 = getelementptr i8, ptr %6, i64 4
  %.val.i.i.i = load i32, ptr %7, align 4
  %.mask.i.i = and i32 %.val.i.i.i, -16777216
  %8 = icmp eq i32 %.mask.i.i, 16777216
  br i1 %8, label %9, label %34

9:                                                ; preds = %_ZN4lean7is_succERKNS_5levelE.exit
  %10 = getelementptr inbounds nuw i8, ptr %6, i64 8
  %11 = load ptr, ptr %10, align 8, !tbaa !3
  %12 = ptrtoint ptr %11 to i64
  %13 = and i64 %12, 1
  %.not.i.i.i1 = icmp eq i64 %13, 0
  br i1 %.not.i.i.i1, label %14, label %_ZN4lean3incEP11lean_object.exit.i.i

14:                                               ; preds = %9
  %.val.i.i.i.i = load i32, ptr %11, align 4, !tbaa !8
  %15 = icmp sgt i32 %.val.i.i.i.i, 0
  br i1 %15, label %16, label %18, !prof !11

16:                                               ; preds = %14
  %17 = add nuw nsw i32 %.val.i.i.i.i, 1
  store i32 %17, ptr %11, align 4, !tbaa !8
  br label %_ZN4lean3incEP11lean_object.exit.i.i

18:                                               ; preds = %14
  %.not.i.i.i.i = icmp eq i32 %.val.i.i.i.i, 0
  br i1 %.not.i.i.i.i, label %_ZN4lean3incEP11lean_object.exit.i.i, label %19

19:                                               ; preds = %18
  tail call void @lean_inc_ref_cold(ptr noundef nonnull %11)
  %.pre.i.i = load ptr, ptr %10, align 8, !tbaa !3
  %.pre = load ptr, ptr %1, align 8, !tbaa !3
  br label %_ZN4lean3incEP11lean_object.exit.i.i

_ZN4lean3incEP11lean_object.exit.i.i:             ; preds = %19, %18, %16, %9
  %20 = phi ptr [ %6, %9 ], [ %6, %16 ], [ %6, %18 ], [ %.pre, %19 ]
  %21 = phi ptr [ %11, %9 ], [ %11, %16 ], [ %11, %18 ], [ %.pre.i.i, %19 ]
  %22 = ptrtoint ptr %20 to i64
  %23 = and i64 %22, 1
  %.not.i4.i.i = icmp eq i64 %23, 0
  br i1 %.not.i4.i.i, label %24, label %_ZN4lean5levelaSERKS0_.exit

24:                                               ; preds = %_ZN4lean3incEP11lean_object.exit.i.i
  %25 = load i32, ptr %20, align 4, !tbaa !8
  %26 = icmp sgt i32 %25, 1
  br i1 %26, label %27, label %29, !prof !11

27:                                               ; preds = %24
  %28 = add nsw i32 %25, -1
  store i32 %28, ptr %20, align 4, !tbaa !8
  br label %_ZN4lean5levelaSERKS0_.exit

29:                                               ; preds = %24
  %.not.i.i5.i.i = icmp eq i32 %25, 0
  br i1 %.not.i.i5.i.i, label %_ZN4lean5levelaSERKS0_.exit, label %30

30:                                               ; preds = %29
  tail call void @lean_dec_ref_cold(ptr noundef nonnull %20)
  br label %_ZN4lean5levelaSERKS0_.exit

_ZN4lean5levelaSERKS0_.exit:                      ; preds = %_ZN4lean3incEP11lean_object.exit.i.i, %27, %29, %30
  store ptr %21, ptr %1, align 8, !tbaa !3
  %31 = add i32 %storemerge7, 1
  %32 = ptrtoint ptr %21 to i64
  %33 = and i64 %32, 1
  %.not.i.i.i = icmp eq i64 %33, 0
  br i1 %.not.i.i.i, label %_ZN4lean7is_succERKNS_5levelE.exit, label %._crit_edge, !llvm.loop !21

._crit_edge:                                      ; preds = %_ZN4lean5levelaSERKS0_.exit, %2
  %storemerge.lcssa = phi i32 [ 0, %2 ], [ %31, %_ZN4lean5levelaSERKS0_.exit ]
  %.lcssa = phi ptr [ %3, %2 ], [ %21, %_ZN4lean5levelaSERKS0_.exit ]
  tail call void @llvm.experimental.noalias.scope.decl(metadata !23)
  tail call void @llvm.experimental.noalias.scope.decl(metadata !26)
  store ptr %.lcssa, ptr %0, align 8, !tbaa !3, !alias.scope !29
  br label %_ZN4lean7mk_pairINS_5levelEjEESt4pairIT_T0_ERKS3_RKS4_.exit

34:                                               ; preds = %_ZN4lean7is_succERKNS_5levelE.exit
  store ptr %6, ptr %0, align 8, !tbaa !3, !alias.scope !30
  %.val.i.i.i.i.i.i.i = load i32, ptr %6, align 4, !tbaa !8, !noalias !29
  %35 = icmp sgt i32 %.val.i.i.i.i.i.i.i, 0
  br i1 %35, label %36, label %38, !prof !11

36:                                               ; preds = %34
  %37 = add nuw nsw i32 %.val.i.i.i.i.i.i.i, 1
  store i32 %37, ptr %6, align 4, !tbaa !8, !noalias !29
  br label %_ZN4lean7mk_pairINS_5levelEjEESt4pairIT_T0_ERKS3_RKS4_.exit

38:                                               ; preds = %34
  %.not.i.i.i.i.i.i.i = icmp eq i32 %.val.i.i.i.i.i.i.i, 0
  br i1 %.not.i.i.i.i.i.i.i, label %_ZN4lean7mk_pairINS_5levelEjEESt4pairIT_T0_ERKS3_RKS4_.exit, label %39

39:                                               ; preds = %38
  tail call void @lean_inc_ref_cold(ptr noundef nonnull %6), !noalias !29
  br label %_ZN4lean7mk_pairINS_5levelEjEESt4pairIT_T0_ERKS3_RKS4_.exit

_ZN4lean7mk_pairINS_5levelEjEESt4pairIT_T0_ERKS3_RKS4_.exit: ; preds = %._crit_edge, %36, %38, %39
  %storemerge5 = phi i32 [ %storemerge.lcssa, %._crit_edge ], [ %storemerge7, %36 ], [ %storemerge7, %38 ], [ %storemerge7, %39 ]
  %40 = getelementptr inbounds nuw i8, ptr %0, i64 8
  store i32 %storemerge5, ptr %40, align 8, !tbaa !33, !alias.scope !29
  ret void
}